target datalayout = "e-m:e-p270:32:32-p271:32:32-p272:64:64-i64:64-i128:128-f80:128-n8:16:32:64-S128"
target triple = "x86_64-unknown-linux-gnu"

%class.smaller_pattern = type { %class.ptr_vector, %class.svector, %class.obj_pair_hashtable }
%class.ptr_vector = type { %class.vector }
%class.vector = type { ptr }
%class.svector = type { %class.vector.0 }
%class.vector.0 = type { ptr }
%class.obj_pair_hashtable = type { %class.core_hashtable.base, [4 x i8] }
%class.core_hashtable.base = type <{ ptr, i32, i32, i32 }>
%class.pattern_inference_cfg = type { ptr, ptr, i32, i32, %class.svector.1, %class.obj_hashtable, %class.smaller_pattern, i32, i32, ptr, i8, i8, i8, [5 x i8], %class.obj_map, %class.ref_vector, %class.ptr_vector.8, %class.ptr_vector.8, %class.ptr_vector.8, %"struct.pattern_inference_cfg::pattern_weight_lt", %"class.pattern_inference_cfg::collect", %"class.pattern_inference_cfg::contains_subpattern", %class.ptr_vector.20, %class.expr_pattern_match, %class.ptr_buffer }
%class.svector.1 = type { %class.vector.2 }
%class.vector.2 = type { ptr }
%class.obj_hashtable = type { %class.core_hashtable.base.4, [4 x i8] }
%class.core_hashtable.base.4 = type <{ ptr, i32, i32, i32 }>
%class.obj_map = type { %class.core_hashtable.5 }
%class.core_hashtable.5 = type <{ ptr, i32, i32, i32, [4 x i8] }>
%class.ref_vector = type { %class.ref_vector_core }
%class.ref_vector_core = type { %class.ref_manager_wrapper, %class.ptr_vector.8 }
%class.ref_manager_wrapper = type { ptr }
%class.ptr_vector.8 = type { %class.vector.9 }
%class.vector.9 = type { ptr }
%"struct.pattern_inference_cfg::pattern_weight_lt" = type { ptr }
%"class.pattern_inference_cfg::collect" = type { ptr, ptr, i32, i32, %class.map, %class.ptr_vector.14, %class.svector.16 }
%class.map = type { %class.table2map }
%class.table2map = type { %class.core_hashtable.10 }
%class.core_hashtable.10 = type <{ ptr, i32, i32, i32, [4 x i8] }>
%class.ptr_vector.14 = type { %class.vector.15 }
%class.vector.15 = type { ptr }
%class.svector.16 = type { %class.vector.17 }
%class.vector.17 = type { ptr }
%"class.pattern_inference_cfg::contains_subpattern" = type { ptr, %class.nat_set, %class.ptr_vector }
%class.nat_set = type { i32, %class.svector.18 }
%class.svector.18 = type { %class.vector.19 }
%class.vector.19 = type { ptr }
%class.ptr_vector.20 = type { %class.vector.21 }
%class.vector.21 = type { ptr }
%class.expr_pattern_match = type { ptr, %class.ref_vector.22, %class.svector.18, %class.svector.27, %class.ptr_vector, %class.ptr_vector.29, %class.ptr_vector.29 }
%class.ref_vector.22 = type { %class.ref_vector_core.23 }
%class.ref_vector_core.23 = type { %class.ref_manager_wrapper.24, %class.ptr_vector.25 }
%class.ref_manager_wrapper.24 = type { ptr }
%class.ptr_vector.25 = type { %class.vector.26 }
%class.vector.26 = type { ptr }
%class.svector.27 = type { %class.vector.28 }
%class.vector.28 = type { ptr }
%class.ptr_vector.29 = type { %class.vector.30 }
%class.vector.30 = type { ptr }
%class.ptr_buffer = type { %class.buffer }
%class.buffer = type { ptr, i32, i32, [16 x %"union.std::aligned_storage<8, 8>::type"] }
%"union.std::aligned_storage<8, 8>::type" = type { [8 x i8] }
%class.symbol = type { ptr }
%class.obj_ref = type { ptr, ptr }
%class.obj_ref.68 = type { ptr, ptr }
%class.ast_manager = type { %class.reslimit, %class.small_object_allocator, %class.family_manager, %class.parray_manager, %class.dependency_manager, %class.parray_manager.44, %class.ptr_vector.47, i32, i8, %class.ast_table, %class.obj_map.50, %class.id_gen, %class.id_gen, ptr, ptr, ptr, ptr, ptr, i32, i8, [3 x i8], %class.u_map, ptr, i8, i8, ptr, %class.symbol, %class.obj_map.59, ptr }
%class.reslimit = type { %"struct.std::atomic", i8, i64, i64, %class.svector.31, %class.ptr_vector.33 }
%"struct.std::atomic" = type { %"struct.std::__atomic_base" }
%"struct.std::__atomic_base" = type { i32 }
%class.svector.31 = type { %class.vector.32 }
%class.vector.32 = type { ptr }
%class.ptr_vector.33 = type { %class.vector.34 }
%class.vector.34 = type { ptr }
%class.small_object_allocator = type { [32 x ptr], [32 x ptr], i64 }
%class.family_manager = type { i32, %class.symbol_table, %class.svector.38 }
%class.symbol_table = type { %class.core_hashtable.35, %class.vector.37, %class.svector.1 }
%class.core_hashtable.35 = type <{ ptr, i32, i32, i32, [4 x i8] }>
%class.vector.37 = type { ptr }
%class.svector.38 = type { %class.vector.39 }
%class.vector.39 = type { ptr }
%class.parray_manager = type { ptr, ptr, %class.ptr_vector.40, %class.ptr_vector.40 }
%class.ptr_vector.40 = type { %class.vector.41 }
%class.vector.41 = type { ptr }
%class.dependency_manager = type { ptr, ptr, %class.ptr_vector.42 }
%class.ptr_vector.42 = type { %class.vector.43 }
%class.vector.43 = type { ptr }
%class.parray_manager.44 = type { ptr, ptr, %class.ptr_vector.45, %class.ptr_vector.45 }
%class.ptr_vector.45 = type { %class.vector.46 }
%class.vector.46 = type { ptr }
%class.ptr_vector.47 = type { %class.vector.48 }
%class.vector.48 = type { ptr }
%class.ast_table = type { %class.chashtable }
%class.chashtable = type { ptr, i32, i32, i32, i32, i32, i32, i32, ptr, ptr, ptr }
%class.obj_map.50 = type { %class.core_hashtable.51 }
%class.core_hashtable.51 = type <{ ptr, i32, i32, i32, [4 x i8] }>
%class.id_gen = type { i32, %class.svector.18 }
%class.u_map = type { %class.map.55 }
%class.map.55 = type { %class.table2map.56 }
%class.table2map.56 = type { %class.core_hashtable.57 }
%class.core_hashtable.57 = type <{ ptr, i32, i32, i32, [4 x i8] }>
%class.obj_map.59 = type { %class.core_hashtable.60 }
%class.core_hashtable.60 = type <{ ptr, i32, i32, i32, [4 x i8] }>
%class.pattern_inference_rw = type { %class.rewriter_tpl, %class.pattern_inference_cfg }
%class.rewriter_tpl = type { %class.rewriter_core, ptr, i32, %class.ptr_vector, %class.var_shifter, %class.inv_var_shifter, %class.obj_ref, %class.obj_ref.68, %class.obj_ref.68, %class.svector.18 }
%class.rewriter_core = type { ptr, ptr, i8, i8, %class.ptr_vector.69, ptr, %class.svector.71, %class.ref_vector.73, %class.ptr_vector.69, ptr, %class.ref_vector, %class.obj_hashtable.76, ptr, i32, %class.svector.82 }
%class.svector.71 = type { %class.vector.72 }
%class.vector.72 = type { ptr }
%class.ref_vector.73 = type { %class.ref_vector_core.74 }
%class.ref_vector_core.74 = type { %class.ref_manager_wrapper.75, %class.ptr_vector }
%class.ref_manager_wrapper.75 = type { ptr }
%class.ptr_vector.69 = type { %class.vector.70 }
%class.vector.70 = type { ptr }
%class.obj_hashtable.76 = type { %class.core_hashtable.base.80, [4 x i8] }
%class.core_hashtable.base.80 = type <{ ptr, i32, i32, i32 }>
%class.svector.82 = type { %class.vector.83 }
%class.vector.83 = type { ptr }
%class.var_shifter = type <{ %class.var_shifter_core, i32, i32, i32, [4 x i8] }>
%class.var_shifter_core = type { %class.rewriter_core }
%class.inv_var_shifter = type <{ %class.var_shifter_core, i32, [4 x i8] }>

@_ZTV20pattern_inference_rw = linkonce_odr hidden unnamed_addr constant { [4 x ptr] } { [4 x ptr] [ptr null, ptr @_ZTI20pattern_inference_rw, ptr @_ZN20pattern_inference_rwD2Ev, ptr @_ZN20pattern_inference_rwD0Ev] }, comdat, align 8
@_ZN21pattern_inference_cfgC1ER11ast_managerRK24pattern_inference_params = hidden unnamed_addr alias void (ptr, ptr, ptr), ptr @_ZN21pattern_inference_cfgC2ER11ast_managerRK24pattern_inference_params

; Function Attrs: mustprogress nounwind uwtable
define linkonce_odr hidden noundef zeroext i1 @_ZNK11ast_manager14proofs_enabledEv(ptr noundef nonnull align 8 dereferenceable(976) %this) #5 comdat align 2 {
entry:
  %this.addr = alloca ptr, align 8
  store ptr %this, ptr %this.addr, align 8
  %this1 = load ptr, ptr %this.addr, align 8
  %m_proof_mode = getelementptr inbounds %class.ast_manager, ptr %this1, i32 0, i32 7
  %0 = load i32, ptr %m_proof_mode, align 8
  %cmp = icmp ne i32 %0, 0
  ret i1 %cmp
}

; Function Attrs: mustprogress uwtable
define hidden void @_ZN20pattern_inference_rwC2ER11ast_managerRK24pattern_inference_params(ptr noundef nonnull align 8 dereferenceable(1040) %this, ptr noundef nonnull align 8 dereferenceable(976) %m, ptr noundef nonnull align 4 dereferenceable(38) %params) unnamed_addr #4 align 2 personality ptr @__gxx_personality_v0 {
entry:
  %this.addr = alloca ptr, align 8
  %m.addr = alloca ptr, align 8
  %params.addr = alloca ptr, align 8
  %exn.slot = alloca ptr, align 8
  %ehselector.slot = alloca i32, align 4
  store ptr %this, ptr %this.addr, align 8
  store ptr %m, ptr %m.addr, align 8
  store ptr %params, ptr %params.addr, align 8
  %this1 = load ptr, ptr %this.addr, align 8
  store ptr getelementptr inbounds ({ [4 x ptr] }, ptr @_ZTV20pattern_inference_rw, i32 0, i32 0, i32 2), ptr %this1, align 8
  %0 = load ptr, ptr %m.addr, align 8
  %1 = load ptr, ptr %m.addr, align 8
  %call = call noundef zeroext i1 @_ZNK11ast_manager14proofs_enabledEv(ptr noundef nonnull align 8 dereferenceable(976) %1)
  %m_cfg = getelementptr inbounds %class.pattern_inference_rw, ptr %this1, i32 0, i32 1
  call void @_ZN12rewriter_tplI21pattern_inference_cfgEC2ER11ast_managerbRS0_(ptr noundef nonnull align 8 dereferenceable(536) %this1, ptr noundef nonnull align 8 dereferenceable(976) %0, i1 noundef zeroext %call, ptr noundef nonnull align 8 dereferenceable(504) %m_cfg)
  store ptr getelementptr inbounds ({ [4 x ptr] }, ptr @_ZTV20pattern_inference_rw, i32 0, i32 0, i32 2), ptr %this1, align 8
  %m_cfg2 = getelementptr inbounds %class.pattern_inference_rw, ptr %this1, i32 0, i32 1
  %2 = load ptr, ptr %m.addr, align 8
  %3 = load ptr, ptr %params.addr, align 8
  invoke void @_ZN21pattern_inference_cfgC1ER11ast_managerRK24pattern_inference_params(ptr noundef nonnull align 8 dereferenceable(504) %m_cfg2, ptr noundef nonnull align 8 dereferenceable(976) %2, ptr noundef nonnull align 4 dereferenceable(38) %3)
          to label %invoke.cont unwind label %lpad

invoke.cont:                                      ; preds = %entry
  ret void

lpad:                                             ; preds = %entry
  %4 = landingpad { ptr, i32 }
          cleanup
  %5 = extractvalue { ptr, i32 } %4, 0
  store ptr %5, ptr %exn.slot, align 8
  %6 = extractvalue { ptr, i32 } %4, 1
  store i32 %6, ptr %ehselector.slot, align 4
  call void @_ZN12rewriter_tplI21pattern_inference_cfgED2Ev(ptr noundef nonnull align 8 dereferenceable(536) %this1) #3
  br label %eh.resume

eh.resume:                                        ; preds = %lpad
  %exn = load ptr, ptr %exn.slot, align 8
  %sel = load i32, ptr %ehselector.slot, align 4
  %lpad.val = insertvalue { ptr, i32 } poison, ptr %exn, 0
  %lpad.val3 = insertvalue { ptr, i32 } %lpad.val, i32 %sel, 1
  resume { ptr, i32 } %lpad.val3
}