; Function Attrs: mustprogress uwtable
define hidden void @_ZN20pattern_inference_rwC2ER11ast_managerRK24pattern_inference_params(ptr noundef nonnull align 8 dereferenceable(1040) %this, ptr noundef nonnull align 8 dereferenceable(976) %m, ptr noundef nonnull align 4 dereferenceable(38) %params) unnamed_addr #3 align 2 personality ptr @__gxx_personality_v0 {
entry:
  store ptr getelementptr inbounds ({ [4 x ptr] }, ptr @_ZTV20pattern_inference_rw, i64 0, i32 0, i64 2), ptr %this, align 8
  %m_proof_mode.i = getelementptr inbounds i8, ptr %m, i64 712
  %0 = load i32, ptr %m_proof_mode.i, align 8
  %cmp.i = icmp ne i32 %0, 0
  %m_cfg = getelementptr inbounds i8, ptr %this, i64 536
  tail call void @_ZN12rewriter_tplI21pattern_inference_cfgEC2ER11ast_managerbRS0_(ptr noundef nonnull align 8 dereferenceable(536) %this, ptr noundef nonnull align 8 dereferenceable(976) %m, i1 noundef zeroext %cmp.i, ptr noundef nonnull align 8 dereferenceable(504) %m_cfg)
  store ptr getelementptr inbounds ({ [4 x ptr] }, ptr @_ZTV20pattern_inference_rw, i64 0, i32 0, i64 2), ptr %this, align 8
  invoke void @_ZN21pattern_inference_cfgC2ER11ast_managerRK24pattern_inference_params(ptr noundef nonnull align 8 dereferenceable(504) %m_cfg, ptr noundef nonnull align 8 dereferenceable(976) %m, ptr noundef nonnull align 4 dereferenceable(38) %params)
          to label %invoke.cont unwind label %lpad

invoke.cont:                                      ; preds = %entry
  ret void

lpad:                                             ; preds = %entry
  %1 = landingpad { ptr, i32 }
          cleanup
  tail call void @_ZN12rewriter_tplI21pattern_inference_cfgED2Ev(ptr noundef nonnull align 8 dereferenceable(536) %this) #19
  resume { ptr, i32 } %1
}